; ModuleID = '44/775.c'
source_filename = "44/775.c"
target datalayout = "e-m:e-p270:32:32-p271:32:32-p272:64:64-i64:64-f80:128-n8:16:32:64-S128"
target triple = "x86_64-pc-linux-gnu"

@.str = private unnamed_addr constant [3 x i8] c"%d\00", align 1
@.str.1 = private unnamed_addr constant [4 x i8] c"%d\0A\00", align 1

; Function Attrs: noinline nounwind uwtable
define dso_local i32 @main() #0 {
  %1 = alloca i32, align 4
  %2 = alloca i32, align 4
  %3 = alloca i32, align 4
  %4 = alloca i32, align 4
  store i32 0, i32* %1, align 4
  store i32 0, i32* %2, align 4
  br label %5

5:                                                ; preds = %14, %0
  %6 = load i32, i32* %2, align 4
  %7 = icmp slt i32 %6, 6
  br i1 %7, label %8, label %17

8:                                                ; preds = %5
  %9 = call i32 (i8*, ...) @__isoc99_scanf(i8* getelementptr inbounds ([3 x i8], [3 x i8]* @.str, i64 0, i64 0), i32* %3)
  %10 = load i32, i32* %3, align 4
  %11 = call i32 @reverse(i32 %10)
  store i32 %11, i32* %4, align 4
  %12 = load i32, i32* %4, align 4
  %13 = call i32 (i8*, ...) @printf(i8* getelementptr inbounds ([4 x i8], [4 x i8]* @.str.1, i64 0, i64 0), i32 %12)
  br label %14

14:                                               ; preds = %8
  %15 = load i32, i32* %2, align 4
  %16 = add nsw i32 %15, 1
  store i32 %16, i32* %2, align 4
  br label %5

17:                                               ; preds = %5
  ret i32 0
}

declare dso_local i32 @__isoc99_scanf(i8*, ...) #1

; Function Attrs: noinline nounwind uwtable
define dso_local i32 @reverse(i32 %0) #0 {
  %2 = alloca i32, align 4
  %3 = alloca i32, align 4
  %4 = alloca i32, align 4
  %5 = alloca [100 x i32], align 16
  %6 = alloca i32, align 4
  %7 = alloca i32, align 4
  store i32 %0, i32* %3, align 4
  %8 = load i32, i32* %3, align 4
  %9 = icmp eq i32 %8, 0
  br i1 %9, label %10, label %11

10:                                               ; preds = %1
  store i32 0, i32* %4, align 4
  store i32 0, i32* %2, align 4
  br label %104

11:                                               ; preds = %1
  %12 = load i32, i32* %3, align 4
  %13 = icmp eq i32 %12, 0
  br i1 %13, label %14, label %15

14:                                               ; preds = %11
  store i32 0, i32* %4, align 4
  store i32 0, i32* %2, align 4
  br label %104

15:                                               ; preds = %11
  %16 = load i32, i32* %3, align 4
  %17 = icmp sgt i32 %16, 0
  br i1 %17, label %18, label %59

18:                                               ; preds = %15
  store i32 0, i32* %7, align 4
  store i32 0, i32* %6, align 4
  br label %19

19:                                               ; preds = %22, %18
  %20 = load i32, i32* %3, align 4
  %21 = icmp sge i32 %20, 1
  br i1 %21, label %22, label %34

22:                                               ; preds = %19
  %23 = load i32, i32* %3, align 4
  %24 = srem i32 %23, 10
  %25 = load i32, i32* %6, align 4
  %26 = sext i32 %25 to i64
  %27 = getelementptr inbounds [100 x i32], [100 x i32]* %5, i64 0, i64 %26
  store i32 %24, i32* %27, align 4
  %28 = load i32, i32* %3, align 4
  %29 = sdiv i32 %28, 10
  store i32 %29, i32* %3, align 4
  %30 = load i32, i32* %6, align 4
  %31 = add nsw i32 %30, 1
  store i32 %31, i32* %6, align 4
  %32 = load i32, i32* %7, align 4
  %33 = add nsw i32 %32, 1
  store i32 %33, i32* %7, align 4
  br label %19

34:                                               ; preds = %19
  store i32 0, i32* %4, align 4
  store i32 0, i32* %6, align 4
  br label %35

35:                                               ; preds = %54, %34
  %36 = load i32, i32* %6, align 4
  %37 = load i32, i32* %7, align 4
  %38 = icmp slt i32 %36, %37
  br i1 %38, label %39, label %57

39:                                               ; preds = %35
  %40 = load i32, i32* %6, align 4
  %41 = sext i32 %40 to i64
  %42 = getelementptr inbounds [100 x i32], [100 x i32]* %5, i64 0, i64 %41
  %43 = load i32, i32* %42, align 4
  %44 = load i32, i32* %7, align 4
  %45 = load i32, i32* %6, align 4
  %46 = sub nsw i32 %44, %45
  %47 = sub nsw i32 %46, 1
  %48 = sitofp i32 %47 to double
  %49 = call double @pow(double 1.000000e+01, double %48) #4
  %50 = fptosi double %49 to i32
  %51 = mul nsw i32 %43, %50
  %52 = load i32, i32* %4, align 4
  %53 = add nsw i32 %52, %51
  store i32 %53, i32* %4, align 4
  br label %54

54:                                               ; preds = %39
  %55 = load i32, i32* %6, align 4
  %56 = add nsw i32 %55, 1
  store i32 %56, i32* %6, align 4
  br label %35

57:                                               ; preds = %35
  %58 = load i32, i32* %4, align 4
  store i32 %58, i32* %2, align 4
  br label %104

59:                                               ; preds = %15
  %60 = load i32, i32* %3, align 4
  %61 = call i32 @abs(i32 %60) #5
  store i32 %61, i32* %3, align 4
  store i32 0, i32* %7, align 4
  store i32 0, i32* %6, align 4
  br label %62

62:                                               ; preds = %65, %59
  %63 = load i32, i32* %3, align 4
  %64 = icmp sge i32 %63, 1
  br i1 %64, label %65, label %77

65:                                               ; preds = %62
  %66 = load i32, i32* %3, align 4
  %67 = srem i32 %66, 10
  %68 = load i32, i32* %6, align 4
  %69 = sext i32 %68 to i64
  %70 = getelementptr inbounds [100 x i32], [100 x i32]* %5, i64 0, i64 %69
  store i32 %67, i32* %70, align 4
  %71 = load i32, i32* %3, align 4
  %72 = sdiv i32 %71, 10
  store i32 %72, i32* %3, align 4
  %73 = load i32, i32* %6, align 4
  %74 = add nsw i32 %73, 1
  store i32 %74, i32* %6, align 4
  %75 = load i32, i32* %7, align 4
  %76 = add nsw i32 %75, 1
  store i32 %76, i32* %7, align 4
  br label %62

77:                                               ; preds = %62
  store i32 0, i32* %4, align 4
  store i32 0, i32* %6, align 4
  br label %78

78:                                               ; preds = %97, %77
  %79 = load i32, i32* %6, align 4
  %80 = load i32, i32* %7, align 4
  %81 = icmp slt i32 %79, %80
  br i1 %81, label %82, label %100

82:                                               ; preds = %78
  %83 = load i32, i32* %6, align 4
  %84 = sext i32 %83 to i64
  %85 = getelementptr inbounds [100 x i32], [100 x i32]* %5, i64 0, i64 %84
  %86 = load i32, i32* %85, align 4
  %87 = load i32, i32* %7, align 4
  %88 = load i32, i32* %6, align 4
  %89 = sub nsw i32 %87, %88
  %90 = sub nsw i32 %89, 1
  %91 = sitofp i32 %90 to double
  %92 = call double @pow(double 1.000000e+01, double %91) #4
  %93 = fptosi double %92 to i32
  %94 = mul nsw i32 %86, %93
  %95 = load i32, i32* %4, align 4
  %96 = add nsw i32 %95, %94
  store i32 %96, i32* %4, align 4
  br label %97

97:                                               ; preds = %82
  %98 = load i32, i32* %6, align 4
  %99 = add nsw i32 %98, 1
  store i32 %99, i32* %6, align 4
  br label %78

100:                                              ; preds = %78
  %101 = load i32, i32* %4, align 4
  %102 = sub nsw i32 0, %101
  store i32 %102, i32* %4, align 4
  %103 = load i32, i32* %4, align 4
  store i32 %103, i32* %2, align 4
  br label %104

104:                                              ; preds = %100, %57, %14, %10
  %105 = load i32, i32* %2, align 4
  ret i32 %105
}

declare dso_local i32 @printf(i8*, ...) #1

; Function Attrs: nounwind
declare dso_local double @pow(double, double) #2

; Function Attrs: nounwind readnone
declare dso_local i32 @abs(i32) #3


!llvm.module.flags = !{!0}
!llvm.ident = !{!1}

!0 = !{i32 1, !"wchar_size", i32 4}
!1 = !{!"clang version 10.0.0-4ubuntu1 "}
